; ModuleID = '54/449.c'
source_filename = "54/449.c"
target datalayout = "e-m:e-p270:32:32-p271:32:32-p272:64:64-i64:64-f80:128-n8:16:32:64-S128"
target triple = "x86_64-pc-linux-gnu"

@.str = private unnamed_addr constant [5 x i8] c"%d%d\00", align 1
@.str.1 = private unnamed_addr constant [3 x i8] c"%d\00", align 1

; Function Attrs: noinline nounwind uwtable
define dso_local void @main() #0 {
  %1 = alloca i32, align 4
  %2 = alloca i32, align 4
  %3 = alloca i32, align 4
  %4 = alloca i32, align 4
  %5 = alloca i32, align 4
  %6 = call i32 (i8*, ...) @__isoc99_scanf(i8* getelementptr inbounds ([5 x i8], [5 x i8]* @.str, i64 0, i64 0), i32* %1, i32* %2)
  %7 = load i32, i32* %1, align 4
  %8 = load i32, i32* %2, align 4
  %9 = add nsw i32 %7, %8
  store i32 %9, i32* %3, align 4
  br label %10

10:                                               ; preds = %64, %0
  %11 = load i32, i32* %3, align 4
  store i32 %11, i32* %5, align 4
  store i32 1, i32* %4, align 4
  br label %12

12:                                               ; preds = %43, %10
  %13 = load i32, i32* %4, align 4
  %14 = load i32, i32* %1, align 4
  %15 = icmp sle i32 %13, %14
  br i1 %15, label %16, label %46

16:                                               ; preds = %12
  %17 = load i32, i32* %4, align 4
  %18 = load i32, i32* %1, align 4
  %19 = icmp eq i32 %17, %18
  br i1 %19, label %20, label %21

20:                                               ; preds = %16
  br label %46

21:                                               ; preds = %16
  %22 = load i32, i32* %5, align 4
  %23 = load i32, i32* %1, align 4
  %24 = srem i32 %22, %23
  %25 = load i32, i32* %2, align 4
  %26 = icmp ne i32 %24, %25
  br i1 %26, label %33, label %27

27:                                               ; preds = %21
  %28 = load i32, i32* %5, align 4
  %29 = load i32, i32* %1, align 4
  %30 = load i32, i32* %2, align 4
  %31 = add nsw i32 %29, %30
  %32 = icmp slt i32 %28, %31
  br i1 %32, label %33, label %34

33:                                               ; preds = %27, %21
  br label %46

34:                                               ; preds = %27
  %35 = load i32, i32* %5, align 4
  %36 = load i32, i32* %2, align 4
  %37 = sub nsw i32 %35, %36
  %38 = load i32, i32* %1, align 4
  %39 = sub nsw i32 %38, 1
  %40 = mul nsw i32 %37, %39
  %41 = load i32, i32* %1, align 4
  %42 = sdiv i32 %40, %41
  store i32 %42, i32* %5, align 4
  br label %43

43:                                               ; preds = %34
  %44 = load i32, i32* %4, align 4
  %45 = add nsw i32 %44, 1
  store i32 %45, i32* %4, align 4
  br label %12

46:                                               ; preds = %33, %20, %12
  %47 = load i32, i32* %4, align 4
  %48 = load i32, i32* %1, align 4
  %49 = icmp eq i32 %47, %48
  br i1 %49, label %50, label %63

50:                                               ; preds = %46
  %51 = load i32, i32* %5, align 4
  %52 = load i32, i32* %1, align 4
  %53 = srem i32 %51, %52
  %54 = load i32, i32* %2, align 4
  %55 = icmp eq i32 %53, %54
  br i1 %55, label %56, label %63

56:                                               ; preds = %50
  %57 = load i32, i32* %5, align 4
  %58 = load i32, i32* %1, align 4
  %59 = load i32, i32* %2, align 4
  %60 = add nsw i32 %58, %59
  %61 = icmp sgt i32 %57, %60
  br i1 %61, label %62, label %63

62:                                               ; preds = %56
  br label %68

63:                                               ; preds = %56, %50, %46
  br label %64

64:                                               ; preds = %63
  %65 = load i32, i32* %1, align 4
  %66 = load i32, i32* %3, align 4
  %67 = add nsw i32 %66, %65
  store i32 %67, i32* %3, align 4
  br label %10

68:                                               ; preds = %62
  %69 = load i32, i32* %3, align 4
  %70 = call i32 (i8*, ...) @printf(i8* getelementptr inbounds ([3 x i8], [3 x i8]* @.str.1, i64 0, i64 0), i32 %69)
  ret void
}

declare dso_local i32 @__isoc99_scanf(i8*, ...) #1

declare dso_local i32 @printf(i8*, ...) #1


!llvm.module.flags = !{!0}
!llvm.ident = !{!1}

!0 = !{i32 1, !"wchar_size", i32 4}
!1 = !{!"clang version 10.0.0-4ubuntu1 "}
